target datalayout = "e-m:e-p270:32:32-p271:32:32-p272:64:64-i64:64-i128:128-f80:128-n8:16:32:64-S128"
target triple = "x86_64-pc-linux-gnu"

%struct.AVChannelLayout = type { i32, i32, %union.anon, ptr }
%union.anon = type { i64 }
%struct.AVCodecContext = type { ptr, i32, i32, ptr, i32, i32, ptr, ptr, ptr, i64, i32, i32, ptr, i32, %struct.AVRational, %struct.AVRational, %struct.AVRational, i32, i32, i32, i32, i32, %struct.AVRational, i32, i32, i32, i32, i32, i32, i32, i32, i32, i32, i32, ptr, ptr, i32, float, float, float, float, float, float, float, float, float, i32, i32, i32, i32, i32, i32, i32, i32, i32, i32, i32, i32, ptr, ptr, ptr, i32, i32, i32, i32, i32, i32, i32, i32, i32, i32, %struct.AVChannelLayout, i32, i32, i32, i32, i32, i32, i32, i32, ptr, i32, i32, i32, float, float, i32, i32, i32, i32, i32, ptr, i64, i64, float, float, i32, i32, ptr, ptr, i32, i32, i32, i32, i32, ptr, ptr, ptr, ptr, i32, i32, [8 x i64], i32, i32, i32, i32, i32, i32, i32, ptr, ptr, i32, i32, i32, i32, i32, i32, i32, i32, i32, i32, ptr, ptr, i32, i32, ptr, ptr, ptr, ptr, i32, i32, i64, i32, i32, i64, ptr, i64, ptr, i32, ptr, i32 }
%struct.AVRational = type { i32, i32 }

@.str.8 = private unnamed_addr constant [30 x i8] c"extradata NULL or too small.\0A\00", align 1
@.str.9 = private unnamed_addr constant [39 x i8] c"extradata contains %d bytes too many.\0A\00", align 1
@.str.10 = private unnamed_addr constant [22 x i8] c"extradata too small.\0A\00", align 1

; Function Attrs: nounwind uwtable
define i32 @ff_flac_is_extradata_valid(ptr noundef %0, ptr noundef %1) #0 {
  %3 = alloca i32, align 4
  %4 = alloca ptr, align 8
  %5 = alloca ptr, align 8
  store ptr %0, ptr %4, align 8, !tbaa !32
  store ptr %1, ptr %5, align 8, !tbaa !34
  %6 = load ptr, ptr %4, align 8, !tbaa !32
  %7 = getelementptr inbounds nuw %struct.AVCodecContext, ptr %6, i32 0, i32 12
  %8 = load ptr, ptr %7, align 8, !tbaa !37
  %9 = icmp ne ptr %8, null
  br i1 %9, label %10, label %15

10:                                               ; preds = %2
  %11 = load ptr, ptr %4, align 8, !tbaa !32
  %12 = getelementptr inbounds nuw %struct.AVCodecContext, ptr %11, i32 0, i32 13
  %13 = load i32, ptr %12, align 8, !tbaa !53
  %14 = icmp slt i32 %13, 34
  br i1 %14, label %15, label %17

15:                                               ; preds = %10, %2
  %16 = load ptr, ptr %4, align 8, !tbaa !32
  call void (ptr, i32, ptr, ...) @av_log(ptr noundef %16, i32 noundef 16, ptr noundef @.str.8)
  store i32 0, ptr %3, align 4
  br label %53

17:                                               ; preds = %10
  %18 = load ptr, ptr %4, align 8, !tbaa !32
  %19 = getelementptr inbounds nuw %struct.AVCodecContext, ptr %18, i32 0, i32 12
  %20 = load ptr, ptr %19, align 8, !tbaa !37
  %21 = load i32, ptr %20, align 1, !tbaa !19
  %22 = icmp ne i32 %21, 1130450022
  br i1 %22, label %23, label %39

23:                                               ; preds = %17
  %24 = load ptr, ptr %4, align 8, !tbaa !32
  %25 = getelementptr inbounds nuw %struct.AVCodecContext, ptr %24, i32 0, i32 13
  %26 = load i32, ptr %25, align 8, !tbaa !53
  %27 = icmp ne i32 %26, 34
  br i1 %27, label %28, label %34

28:                                               ; preds = %23
  %29 = load ptr, ptr %4, align 8, !tbaa !32
  %30 = load ptr, ptr %4, align 8, !tbaa !32
  %31 = getelementptr inbounds nuw %struct.AVCodecContext, ptr %30, i32 0, i32 13
  %32 = load i32, ptr %31, align 8, !tbaa !53
  %33 = sub nsw i32 34, %32
  call void (ptr, i32, ptr, ...) @av_log(ptr noundef %29, i32 noundef 24, ptr noundef @.str.9, i32 noundef %33)
  br label %34

34:                                               ; preds = %28, %23
  %35 = load ptr, ptr %4, align 8, !tbaa !32
  %36 = getelementptr inbounds nuw %struct.AVCodecContext, ptr %35, i32 0, i32 12
  %37 = load ptr, ptr %36, align 8, !tbaa !37
  %38 = load ptr, ptr %5, align 8, !tbaa !34
  store ptr %37, ptr %38, align 8, !tbaa !54
  br label %52

39:                                               ; preds = %17
  %40 = load ptr, ptr %4, align 8, !tbaa !32
  %41 = getelementptr inbounds nuw %struct.AVCodecContext, ptr %40, i32 0, i32 13
  %42 = load i32, ptr %41, align 8, !tbaa !53
  %43 = icmp slt i32 %42, 42
  br i1 %43, label %44, label %46

44:                                               ; preds = %39
  %45 = load ptr, ptr %4, align 8, !tbaa !32
  call void (ptr, i32, ptr, ...) @av_log(ptr noundef %45, i32 noundef 16, ptr noundef @.str.10)
  store i32 0, ptr %3, align 4
  br label %53

46:                                               ; preds = %39
  %47 = load ptr, ptr %4, align 8, !tbaa !32
  %48 = getelementptr inbounds nuw %struct.AVCodecContext, ptr %47, i32 0, i32 12
  %49 = load ptr, ptr %48, align 8, !tbaa !37
  %50 = getelementptr inbounds i8, ptr %49, i64 8
  %51 = load ptr, ptr %5, align 8, !tbaa !34
  store ptr %50, ptr %51, align 8, !tbaa !54
  br label %52

52:                                               ; preds = %46, %34
  store i32 1, ptr %3, align 4
  br label %53

53:                                               ; preds = %52, %44, %15
  %54 = load i32, ptr %3, align 4
  ret i32 %54
}