; Function Attrs: nounwind uwtable
define range(i32 0, 2) i32 @ff_flac_is_extradata_valid(ptr noundef %0, ptr noundef writeonly captures(none) %1) local_unnamed_addr #0 {
  %3 = getelementptr inbounds nuw i8, ptr %0, i64 72
  %4 = load ptr, ptr %3, align 8, !tbaa !26
  %.not = icmp eq ptr %4, null
  br i1 %.not, label %9, label %5

5:                                                ; preds = %2
  %6 = getelementptr inbounds nuw i8, ptr %0, i64 80
  %7 = load i32, ptr %6, align 8, !tbaa !43
  %8 = icmp slt i32 %7, 34
  br i1 %8, label %9, label %10

9:                                                ; preds = %5, %2
  tail call void (ptr, i32, ptr, ...) @av_log(ptr noundef nonnull %0, i32 noundef 16, ptr noundef nonnull @.str.8) #6
  br label %21

10:                                               ; preds = %5
  %11 = load i32, ptr %4, align 1, !tbaa !13
  %.not15 = icmp eq i32 %11, 1130450022
  br i1 %.not15, label %15, label %12

12:                                               ; preds = %10
  %.not16 = icmp eq i32 %7, 34
  br i1 %.not16, label %20, label %13

13:                                               ; preds = %12
  %14 = sub nsw i32 34, %7
  tail call void (ptr, i32, ptr, ...) @av_log(ptr noundef nonnull %0, i32 noundef 24, ptr noundef nonnull @.str.9, i32 noundef %14) #6
  %.pre = load ptr, ptr %3, align 8, !tbaa !26
  br label %20

15:                                               ; preds = %10
  %16 = icmp samesign ult i32 %7, 42
  br i1 %16, label %17, label %18

17:                                               ; preds = %15
  tail call void (ptr, i32, ptr, ...) @av_log(ptr noundef nonnull %0, i32 noundef 16, ptr noundef nonnull @.str.10) #6
  br label %21

18:                                               ; preds = %15
  %19 = getelementptr inbounds nuw i8, ptr %4, i64 8
  br label %20

20:                                               ; preds = %12, %13, %18
  %storemerge = phi ptr [ %19, %18 ], [ %.pre, %13 ], [ %4, %12 ]
  store ptr %storemerge, ptr %1, align 8, !tbaa !44
  br label %21

21:                                               ; preds = %20, %17, %9
  %.0 = phi i32 [ 0, %9 ], [ 1, %20 ], [ 0, %17 ]
  ret i32 %.0
}